Archive member included because of file (symbol)

c:/program files (x86)/atmel/avr tools/avr toolchain/bin/../lib/gcc/avr/4.5.1/avr6\libgcc.a(_udivmodhi4.o)
                              main.o (__udivmodhi4)
c:/program files (x86)/atmel/avr tools/avr toolchain/bin/../lib/gcc/avr/4.5.1/avr6\libgcc.a(_divmodhi4.o)
                              main.o (__divmodhi4)
c:/program files (x86)/atmel/avr tools/avr toolchain/bin/../lib/gcc/avr/4.5.1/avr6\libgcc.a(_exit.o)
                              c:/program files (x86)/atmel/avr tools/avr toolchain/bin/../lib/gcc/avr/4.5.1/../../../../avr/lib/avr6/crtm2560.o (exit)
c:/program files (x86)/atmel/avr tools/avr toolchain/bin/../lib/gcc/avr/4.5.1/avr6\libgcc.a(_copy_data.o)
                              main.o (__do_copy_data)
c:/program files (x86)/atmel/avr tools/avr toolchain/bin/../lib/gcc/avr/4.5.1/avr6\libgcc.a(_clear_bss.o)
                              main.o (__do_clear_bss)
c:/program files (x86)/atmel/avr tools/avr toolchain/bin/../lib/gcc/avr/4.5.1/../../../../avr/lib/avr6\libc.a(malloc.o)
                              e_agenda.o (malloc)

Allocating common symbols
Common symbol       size              file

PTX                 0x1               mirf.o
__brkval            0x2               c:/program files (x86)/atmel/avr tools/avr toolchain/bin/../lib/gcc/avr/4.5.1/../../../../avr/lib/avr6\libc.a(malloc.o)
dataLED             0x6               main.o
rfData              0x6               main.o
__flp               0x2               c:/program files (x86)/atmel/avr tools/avr toolchain/bin/../lib/gcc/avr/4.5.1/../../../../avr/lib/avr6\libc.a(malloc.o)

Memory Configuration

Name             Origin             Length             Attributes
text             0x00000000         0x00100000         xr
data             0x00800200         0x0000fe00         rw !x
eeprom           0x00810000         0x00010000         rw !x
fuse             0x00820000         0x00000400         rw !x
lock             0x00830000         0x00000400         rw !x
signature        0x00840000         0x00000400         rw !x
*default*        0x00000000         0xffffffff

Linker script and memory map

Address of section .data set to 0x800200
LOAD c:/program files (x86)/atmel/avr tools/avr toolchain/bin/../lib/gcc/avr/4.5.1/../../../../avr/lib/avr6/crtm2560.o
LOAD main.o
LOAD spi.o
LOAD mirf.o
LOAD e_agenda.o
LOAD e_remote_control.o
LOAD c:/program files (x86)/atmel/avr tools/avr toolchain/bin/../lib/gcc/avr/4.5.1/avr6\libgcc.a
LOAD c:/program files (x86)/atmel/avr tools/avr toolchain/bin/../lib/gcc/avr/4.5.1/../../../../avr/lib/avr6\libc.a
LOAD c:/program files (x86)/atmel/avr tools/avr toolchain/bin/../lib/gcc/avr/4.5.1/avr6\libgcc.a

.hash
 *(.hash)

.dynsym
 *(.dynsym)

.dynstr
 *(.dynstr)

.gnu.version
 *(.gnu.version)

.gnu.version_d
 *(.gnu.version_d)

.gnu.version_r
 *(.gnu.version_r)

.rel.init
 *(.rel.init)

.rela.init
 *(.rela.init)

.rel.text
 *(.rel.text)
 *(.rel.text.*)
 *(.rel.gnu.linkonce.t*)

.rela.text
 *(.rela.text)
 *(.rela.text.*)
 *(.rela.gnu.linkonce.t*)

.rel.fini
 *(.rel.fini)

.rela.fini
 *(.rela.fini)

.rel.rodata
 *(.rel.rodata)
 *(.rel.rodata.*)
 *(.rel.gnu.linkonce.r*)

.rela.rodata
 *(.rela.rodata)
 *(.rela.rodata.*)
 *(.rela.gnu.linkonce.r*)

.rel.data
 *(.rel.data)
 *(.rel.data.*)
 *(.rel.gnu.linkonce.d*)

.rela.data
 *(.rela.data)
 *(.rela.data.*)
 *(.rela.gnu.linkonce.d*)

.rel.ctors
 *(.rel.ctors)

.rela.ctors
 *(.rela.ctors)

.rel.dtors
 *(.rel.dtors)

.rela.dtors
 *(.rela.dtors)

.rel.got
 *(.rel.got)

.rela.got
 *(.rela.got)

.rel.bss
 *(.rel.bss)

.rela.bss
 *(.rela.bss)

.rel.plt
 *(.rel.plt)

.rela.plt
 *(.rela.plt)

.text           0x00000000     0x1cb0
 *(.vectors)
 .vectors       0x00000000       0xe4 c:/program files (x86)/atmel/avr tools/avr toolchain/bin/../lib/gcc/avr/4.5.1/../../../../avr/lib/avr6/crtm2560.o
                0x00000000                __vector_default
                0x00000000                __vectors
 *(.vectors)
 *(.progmem.gcc*)
 *(.progmem*)
                0x000000e4                . = ALIGN (0x2)
                0x000000e4                __trampolines_start = .
 *(.trampolines)
 .trampolines   0x000000e4        0x0 linker stubs
 *(.trampolines*)
                0x000000e4                __trampolines_end = .
 *(.jumptables)
 *(.jumptables*)
 *(.lowtext)
 *(.lowtext*)
                0x000000e4                __ctors_start = .
 *(.ctors)
                0x000000e4                __ctors_end = .
                0x000000e4                __dtors_start = .
 *(.dtors)
                0x000000e4                __dtors_end = .
 SORT(*)(.ctors)
 SORT(*)(.dtors)
 *(.init0)
 .init0         0x000000e4        0x0 c:/program files (x86)/atmel/avr tools/avr toolchain/bin/../lib/gcc/avr/4.5.1/../../../../avr/lib/avr6/crtm2560.o
                0x000000e4                __init
 *(.init0)
 *(.init1)
 *(.init1)
 *(.init2)
 .init2         0x000000e4       0x10 c:/program files (x86)/atmel/avr tools/avr toolchain/bin/../lib/gcc/avr/4.5.1/../../../../avr/lib/avr6/crtm2560.o
 *(.init2)
 *(.init3)
 *(.init3)
 *(.init4)
 .init4         0x000000f4       0x16 c:/program files (x86)/atmel/avr tools/avr toolchain/bin/../lib/gcc/avr/4.5.1/avr6\libgcc.a(_copy_data.o)
                0x000000f4                __do_copy_data
 .init4         0x0000010a       0x10 c:/program files (x86)/atmel/avr tools/avr toolchain/bin/../lib/gcc/avr/4.5.1/avr6\libgcc.a(_clear_bss.o)
                0x0000010a                __do_clear_bss
 *(.init4)
 *(.init5)
 *(.init5)
 *(.init6)
 *(.init6)
 *(.init7)
 *(.init7)
 *(.init8)
 *(.init8)
 *(.init9)
 .init9         0x0000011a        0x8 c:/program files (x86)/atmel/avr tools/avr toolchain/bin/../lib/gcc/avr/4.5.1/../../../../avr/lib/avr6/crtm2560.o
 *(.init9)
 *(.text)
 .text          0x00000122        0x4 c:/program files (x86)/atmel/avr tools/avr toolchain/bin/../lib/gcc/avr/4.5.1/../../../../avr/lib/avr6/crtm2560.o
                0x00000122                __vector_38
                0x00000122                __vector_22
                0x00000122                __vector_28
                0x00000122                __vector_1
                0x00000122                __vector_34
                0x00000122                __vector_24
                0x00000122                __vector_12
                0x00000122                __vector_55
                0x00000122                __vector_46
                0x00000122                __bad_interrupt
                0x00000122                __vector_6
                0x00000122                __vector_31
                0x00000122                __vector_39
                0x00000122                __vector_3
                0x00000122                __vector_23
                0x00000122                __vector_30
                0x00000122                __vector_11
                0x00000122                __vector_54
                0x00000122                __vector_17
                0x00000122                __vector_19
                0x00000122                __vector_56
                0x00000122                __vector_7
                0x00000122                __vector_49
                0x00000122                __vector_41
                0x00000122                __vector_27
                0x00000122                __vector_5
                0x00000122                __vector_47
                0x00000122                __vector_52
                0x00000122                __vector_37
                0x00000122                __vector_4
                0x00000122                __vector_44
                0x00000122                __vector_51
                0x00000122                __vector_9
                0x00000122                __vector_2
                0x00000122                __vector_21
                0x00000122                __vector_15
                0x00000122                __vector_36
                0x00000122                __vector_40
                0x00000122                __vector_8
                0x00000122                __vector_26
                0x00000122                __vector_48
                0x00000122                __vector_14
                0x00000122                __vector_53
                0x00000122                __vector_50
                0x00000122                __vector_16
                0x00000122                __vector_18
                0x00000122                __vector_20
 .text          0x00000126     0x1192 main.o
                0x00000126                initPorts
                0x00000160                initAdc
                0x0000018e                __vector_29
                0x00000306                initPwm
                0x000003d4                __vector_45
                0x000004ca                __vector_42
                0x000004ee                __vector_43
                0x00000512                __vector_35
                0x0000062a                __vector_32
                0x0000064e                __vector_33
                0x00000672                initUsart
                0x0000069c                usartTransmit
                0x000006aa                __vector_25
                0x00000a74                initExternalInterrupt
                0x00000a76                initPeripherals
                0x00000a94                toggleBlueLed
                0x00000aca                updateRedLed
                0x00000af2                updateGreenLed
                0x00000b1a                updateBlueLed
                0x00000b42                main
 .text          0x000012b8       0x66 spi.o
                0x000012b8                initSPI
                0x000012d0                SPI_ReadWrite_Block
                0x000012f6                SPI_Write_Block
                0x00001312                SPI_Write_Byte
 .text          0x0000131e      0x270 mirf.o
                0x0000131e                mirf_data_ready
                0x00001338                flush_rx_fifo
                0x00001344                mirf_config_register
                0x0000136c                mirf_get_data
                0x00001394                mirf_read_register
                0x000013c6                rx_fifo_is_empty
                0x000013ec                mirf_write_register
                0x00001420                mirf_set_TADDR
                0x0000142c                mirf_set_RADDR
                0x0000143c                mirf_config
                0x000014de                mirf_init
                0x000014e8                mirf_send
                0x00001530                flushTxFifo
                0x0000153c                writeAckPayload
 .text          0x0000158e      0x250 e_agenda.o
                0x0000158e                e_start_agendas_processing
                0x000015b4                e_end_agendas_processing
                0x000015c0                e_activate_agenda
                0x00001636                e_destroy_agenda
                0x0000168a                e_set_agenda_cycle
                0x000016ba                e_reset_agenda
                0x000016ea                e_pause_agenda
                0x00001718                e_restart_agenda
                0x00001748                __vector_13
 .text          0x000017de      0x21c e_remote_control.o
                0x000017de                e_read_remote_control
                0x00001952                e_init_remote_control
                0x00001968                __vector_10
                0x000019e8                e_get_check
                0x000019ee                e_get_address
                0x000019f4                e_get_data
 .text          0x000019fa        0x0 c:/program files (x86)/atmel/avr tools/avr toolchain/bin/../lib/gcc/avr/4.5.1/avr6\libgcc.a(_udivmodhi4.o)
 .text          0x000019fa        0x0 c:/program files (x86)/atmel/avr tools/avr toolchain/bin/../lib/gcc/avr/4.5.1/avr6\libgcc.a(_divmodhi4.o)
 .text          0x000019fa        0x0 c:/program files (x86)/atmel/avr tools/avr toolchain/bin/../lib/gcc/avr/4.5.1/avr6\libgcc.a(_exit.o)
 .text          0x000019fa        0x0 c:/program files (x86)/atmel/avr tools/avr toolchain/bin/../lib/gcc/avr/4.5.1/avr6\libgcc.a(_copy_data.o)
 .text          0x000019fa        0x0 c:/program files (x86)/atmel/avr tools/avr toolchain/bin/../lib/gcc/avr/4.5.1/avr6\libgcc.a(_clear_bss.o)
 .text          0x000019fa        0x0 c:/program files (x86)/atmel/avr tools/avr toolchain/bin/../lib/gcc/avr/4.5.1/../../../../avr/lib/avr6\libc.a(malloc.o)
                0x000019fa                . = ALIGN (0x2)
 *(.text.*)
 .text.libgcc   0x000019fa       0x28 c:/program files (x86)/atmel/avr tools/avr toolchain/bin/../lib/gcc/avr/4.5.1/avr6\libgcc.a(_udivmodhi4.o)
                0x000019fa                __udivmodhi4
 .text.libgcc   0x00001a22       0x26 c:/program files (x86)/atmel/avr tools/avr toolchain/bin/../lib/gcc/avr/4.5.1/avr6\libgcc.a(_divmodhi4.o)
                0x00001a22                _div
                0x00001a22                __divmodhi4
 .text.libgcc   0x00001a48        0x0 c:/program files (x86)/atmel/avr tools/avr toolchain/bin/../lib/gcc/avr/4.5.1/avr6\libgcc.a(_exit.o)
 .text.libgcc   0x00001a48        0x0 c:/program files (x86)/atmel/avr tools/avr toolchain/bin/../lib/gcc/avr/4.5.1/avr6\libgcc.a(_copy_data.o)
 .text.libgcc   0x00001a48        0x0 c:/program files (x86)/atmel/avr tools/avr toolchain/bin/../lib/gcc/avr/4.5.1/avr6\libgcc.a(_clear_bss.o)
 .text.avr-libc
                0x00001a48      0x266 c:/program files (x86)/atmel/avr tools/avr toolchain/bin/../lib/gcc/avr/4.5.1/../../../../avr/lib/avr6\libc.a(malloc.o)
                0x00001a48                malloc
                0x00001b7c                free
                0x00001cae                . = ALIGN (0x2)
 *(.fini9)
 .fini9         0x00001cae        0x0 c:/program files (x86)/atmel/avr tools/avr toolchain/bin/../lib/gcc/avr/4.5.1/avr6\libgcc.a(_exit.o)
                0x00001cae                _exit
                0x00001cae                exit
 *(.fini9)
 *(.fini8)
 *(.fini8)
 *(.fini7)
 *(.fini7)
 *(.fini6)
 *(.fini6)
 *(.fini5)
 *(.fini5)
 *(.fini4)
 *(.fini4)
 *(.fini3)
 *(.fini3)
 *(.fini2)
 *(.fini2)
 *(.fini1)
 *(.fini1)
 *(.fini0)
 .fini0         0x00001cae        0x2 c:/program files (x86)/atmel/avr tools/avr toolchain/bin/../lib/gcc/avr/4.5.1/avr6\libgcc.a(_exit.o)
 *(.fini0)
                0x00001cb0                _etext = .

.data           0x00800200       0x86 load address 0x00001cb0
                0x00800200                PROVIDE (__data_start, .)
 *(.data)
 .data          0x00800200        0x0 c:/program files (x86)/atmel/avr tools/avr toolchain/bin/../lib/gcc/avr/4.5.1/../../../../avr/lib/avr6/crtm2560.o
 .data          0x00800200       0x7d main.o
                0x00800200                channelSequence
                0x00800278                peripheralChoice
                0x00800279                choosePeripheral
                0x0080027a                pwm_red
                0x0080027b                pwm_green
                0x0080027c                pwm_blue
 .data          0x0080027d        0x0 spi.o
 .data          0x0080027d        0x0 mirf.o
 .data          0x0080027d        0x0 e_agenda.o
 .data          0x0080027d        0x3 e_remote_control.o
                0x0080027d                check
 .data          0x00800280        0x0 c:/program files (x86)/atmel/avr tools/avr toolchain/bin/../lib/gcc/avr/4.5.1/avr6\libgcc.a(_udivmodhi4.o)
 .data          0x00800280        0x0 c:/program files (x86)/atmel/avr tools/avr toolchain/bin/../lib/gcc/avr/4.5.1/avr6\libgcc.a(_divmodhi4.o)
 .data          0x00800280        0x0 c:/program files (x86)/atmel/avr tools/avr toolchain/bin/../lib/gcc/avr/4.5.1/avr6\libgcc.a(_exit.o)
 .data          0x00800280        0x0 c:/program files (x86)/atmel/avr tools/avr toolchain/bin/../lib/gcc/avr/4.5.1/avr6\libgcc.a(_copy_data.o)
 .data          0x00800280        0x0 c:/program files (x86)/atmel/avr tools/avr toolchain/bin/../lib/gcc/avr/4.5.1/avr6\libgcc.a(_clear_bss.o)
 .data          0x00800280        0x6 c:/program files (x86)/atmel/avr tools/avr toolchain/bin/../lib/gcc/avr/4.5.1/../../../../avr/lib/avr6\libc.a(malloc.o)
                0x00800280                __malloc_margin
                0x00800282                __malloc_heap_start
                0x00800284                __malloc_heap_end
 *(.data*)
 *(.rodata)
 *(.rodata*)
 *(.gnu.linkonce.d*)
                0x00800286                . = ALIGN (0x2)
                0x00800286                _edata = .
                0x00800286                PROVIDE (__data_end, .)

.bss            0x00800286       0x8f
                0x00800286                PROVIDE (__bss_start, .)
 *(.bss)
 .bss           0x00800286        0x0 c:/program files (x86)/atmel/avr tools/avr toolchain/bin/../lib/gcc/avr/4.5.1/../../../../avr/lib/avr6/crtm2560.o
 .bss           0x00800286       0x73 main.o
                0x00800286                currentAdChannel
                0x00800287                channelIndex
                0x00800288                currentProx
                0x00800289                currentMotLeftChannel
                0x0080028a                currentMotRightChannel
                0x0080028b                rightMotorPhase
                0x0080028c                leftMotorPhase
                0x0080028d                proximityValue
                0x008002bd                cliffValue
                0x008002cd                adcSaveDataTo
                0x008002ce                adcSamplingState
                0x008002cf                start_left_current_sampling
                0x008002d0                start_right_current_sampling
                0x008002d1                left_current_avg
                0x008002d3                right_current_avg
                0x008002d5                last_left_current
                0x008002d7                last_right_current
                0x008002d9                start_left_vel_sampling
                0x008002da                start_right_vel_sampling
                0x008002db                num_lvel_samples_avg
                0x008002dd                last_num_lvel_samples_avg
                0x008002df                num_rvel_samples_avg
                0x008002e1                last_num_rvel_samples_avg
                0x008002e3                left_vel_sum
                0x008002e5                last_left_vel_sum
                0x008002e7                right_vel_sum
                0x008002e9                last_right_vel_sum
                0x008002eb                pwm_right
                0x008002ef                pwm_left
                0x008002f3                speedl
                0x008002f4                speedr
                0x008002f5                sendAdcValues
                0x008002f6                blinkState
                0x008002f7                ir_move
                0x008002f8                colorState
 .bss           0x008002f9        0x0 spi.o
 .bss           0x008002f9        0x0 mirf.o
 .bss           0x008002f9        0x3 e_agenda.o
                0x008002f9                my_toggle_state
 .bss           0x008002fc        0x8 e_remote_control.o
                0x008002fc                address
                0x008002fd                data_ir
                0x008002fe                my_toggle_state2
                0x008002ff                my_toggle_state3
                0x00800300                command_received
 .bss           0x00800304        0x0 c:/program files (x86)/atmel/avr tools/avr toolchain/bin/../lib/gcc/avr/4.5.1/avr6\libgcc.a(_udivmodhi4.o)
 .bss           0x00800304        0x0 c:/program files (x86)/atmel/avr tools/avr toolchain/bin/../lib/gcc/avr/4.5.1/avr6\libgcc.a(_divmodhi4.o)
 .bss           0x00800304        0x0 c:/program files (x86)/atmel/avr tools/avr toolchain/bin/../lib/gcc/avr/4.5.1/avr6\libgcc.a(_exit.o)
 .bss           0x00800304        0x0 c:/program files (x86)/atmel/avr tools/avr toolchain/bin/../lib/gcc/avr/4.5.1/avr6\libgcc.a(_copy_data.o)
 .bss           0x00800304        0x0 c:/program files (x86)/atmel/avr tools/avr toolchain/bin/../lib/gcc/avr/4.5.1/avr6\libgcc.a(_clear_bss.o)
 .bss           0x00800304        0x0 c:/program files (x86)/atmel/avr tools/avr toolchain/bin/../lib/gcc/avr/4.5.1/../../../../avr/lib/avr6\libc.a(malloc.o)
 *(.bss*)
 *(COMMON)
 COMMON         0x00800304        0xc main.o
                0x00800304                dataLED
                0x0080030a                rfData
 COMMON         0x00800310        0x1 mirf.o
                0x00800310                PTX
 COMMON         0x00800311        0x4 c:/program files (x86)/atmel/avr tools/avr toolchain/bin/../lib/gcc/avr/4.5.1/../../../../avr/lib/avr6\libc.a(malloc.o)
                0x00800311                __brkval
                0x00800313                __flp
                0x00800315                PROVIDE (__bss_end, .)
                0x00001cb0                __data_load_start = LOADADDR (.data)
                0x00001d36                __data_load_end = (__data_load_start + SIZEOF (.data))

.noinit         0x00800315        0x0
                0x00800315                PROVIDE (__noinit_start, .)
 *(.noinit*)
                0x00800315                PROVIDE (__noinit_end, .)
                0x00800315                _end = .
                0x00800315                PROVIDE (__heap_start, .)

.eeprom         0x00810000        0x0
 *(.eeprom*)
                0x00810000                __eeprom_end = .

.fuse           0x00820000        0x3
 *(.fuse)
 .fuse          0x00820000        0x3 main.o
                0x00820000                __fuse
 *(.lfuse)
 *(.hfuse)
 *(.efuse)

.lock
 *(.lock*)

.signature
 *(.signature*)

.stab           0x00000000      0x6e4
 *(.stab)
 .stab          0x00000000      0x6e4 c:/program files (x86)/atmel/avr tools/avr toolchain/bin/../lib/gcc/avr/4.5.1/../../../../avr/lib/avr6/crtm2560.o

.stabstr        0x00000000       0x85
 *(.stabstr)
 .stabstr       0x00000000       0x85 c:/program files (x86)/atmel/avr tools/avr toolchain/bin/../lib/gcc/avr/4.5.1/../../../../avr/lib/avr6/crtm2560.o

.stab.excl
 *(.stab.excl)

.stab.exclstr
 *(.stab.exclstr)

.stab.index
 *(.stab.index)

.stab.indexstr
 *(.stab.indexstr)

.comment
 *(.comment)

.debug
 *(.debug)

.line
 *(.line)

.debug_srcinfo
 *(.debug_srcinfo)

.debug_sfnames
 *(.debug_sfnames)

.debug_aranges  0x00000000       0xc8
 *(.debug_aranges)
 .debug_aranges
                0x00000000       0x20 main.o
 .debug_aranges
                0x00000020       0x20 spi.o
 .debug_aranges
                0x00000040       0x20 mirf.o
 .debug_aranges
                0x00000060       0x20 e_agenda.o
 .debug_aranges
                0x00000080       0x20 e_remote_control.o
 .debug_aranges
                0x000000a0       0x28 c:/program files (x86)/atmel/avr tools/avr toolchain/bin/../lib/gcc/avr/4.5.1/../../../../avr/lib/avr6\libc.a(malloc.o)

.debug_pubnames
                0x00000000      0x88e
 *(.debug_pubnames)
 .debug_pubnames
                0x00000000      0x4b6 main.o
 .debug_pubnames
                0x000004b6       0x5d spi.o
 .debug_pubnames
                0x00000513      0x125 mirf.o
 .debug_pubnames
                0x00000638       0xef e_agenda.o
 .debug_pubnames
                0x00000727       0xe8 e_remote_control.o
 .debug_pubnames
                0x0000080f       0x7f c:/program files (x86)/atmel/avr tools/avr toolchain/bin/../lib/gcc/avr/4.5.1/../../../../avr/lib/avr6\libc.a(malloc.o)

.debug_info     0x00000000     0x149f
 *(.debug_info)
 .debug_info    0x00000000      0x881 main.o
 .debug_info    0x00000881      0x14b spi.o
 .debug_info    0x000009cc      0x329 mirf.o
 .debug_info    0x00000cf5      0x2ef e_agenda.o
 .debug_info    0x00000fe4      0x225 e_remote_control.o
 .debug_info    0x00001209      0x296 c:/program files (x86)/atmel/avr tools/avr toolchain/bin/../lib/gcc/avr/4.5.1/../../../../avr/lib/avr6\libc.a(malloc.o)
 *(.gnu.linkonce.wi.*)

.debug_abbrev   0x00000000      0x69b
 *(.debug_abbrev)
 .debug_abbrev  0x00000000      0x1af main.o
 .debug_abbrev  0x000001af       0xbd spi.o
 .debug_abbrev  0x0000026c      0x12f mirf.o
 .debug_abbrev  0x0000039b      0x12e e_agenda.o
 .debug_abbrev  0x000004c9       0xdd e_remote_control.o
 .debug_abbrev  0x000005a6       0xf5 c:/program files (x86)/atmel/avr tools/avr toolchain/bin/../lib/gcc/avr/4.5.1/../../../../avr/lib/avr6\libc.a(malloc.o)

.debug_line     0x00000000     0x1cb7
 *(.debug_line)
 .debug_line    0x00000000      0xd50 main.o
 .debug_line    0x00000d50      0x18c spi.o
 .debug_line    0x00000edc      0x414 mirf.o
 .debug_line    0x000012f0      0x3a3 e_agenda.o
 .debug_line    0x00001693      0x25c e_remote_control.o
 .debug_line    0x000018ef      0x3c8 c:/program files (x86)/atmel/avr tools/avr toolchain/bin/../lib/gcc/avr/4.5.1/../../../../avr/lib/avr6\libc.a(malloc.o)

.debug_frame    0x00000000      0x3d0
 *(.debug_frame)
 .debug_frame   0x00000000      0x150 main.o
 .debug_frame   0x00000150       0x50 spi.o
 .debug_frame   0x000001a0       0xf0 mirf.o
 .debug_frame   0x00000290       0xa0 e_agenda.o
 .debug_frame   0x00000330       0x70 e_remote_control.o
 .debug_frame   0x000003a0       0x30 c:/program files (x86)/atmel/avr tools/avr toolchain/bin/../lib/gcc/avr/4.5.1/../../../../avr/lib/avr6\libc.a(malloc.o)

.debug_str      0x00000000      0x85c
 *(.debug_str)
 .debug_str     0x00000000      0x467 main.o
                                0x4ea (size before relaxing)
 .debug_str     0x00000467       0x50 spi.o
                                0x129 (size before relaxing)
 .debug_str     0x000004b7       0xee mirf.o
                                0x1d9 (size before relaxing)
 .debug_str     0x000005a5      0x10f e_agenda.o
                                0x1f1 (size before relaxing)
 .debug_str     0x000006b4       0xbf e_remote_control.o
                                0x1c0 (size before relaxing)
 .debug_str     0x00000773       0xe9 c:/program files (x86)/atmel/avr tools/avr toolchain/bin/../lib/gcc/avr/4.5.1/../../../../avr/lib/avr6\libc.a(malloc.o)
                                0x16a (size before relaxing)

.debug_loc      0x00000000      0xc13
 *(.debug_loc)
 .debug_loc     0x00000000      0x1f6 main.o
 .debug_loc     0x000001f6       0xa3 spi.o
 .debug_loc     0x00000299      0x1dd mirf.o
 .debug_loc     0x00000476      0x32a e_agenda.o
 .debug_loc     0x000007a0       0x4a e_remote_control.o
 .debug_loc     0x000007ea      0x429 c:/program files (x86)/atmel/avr tools/avr toolchain/bin/../lib/gcc/avr/4.5.1/../../../../avr/lib/avr6\libc.a(malloc.o)

.debug_macinfo
 *(.debug_macinfo)
OUTPUT(ElisaII-avr-studio.elf elf32-avr)
LOAD linker stubs

.debug_pubtypes
                0x00000000      0x110
 .debug_pubtypes
                0x00000000       0x38 main.o
 .debug_pubtypes
                0x00000038       0x1e spi.o
 .debug_pubtypes
                0x00000056       0x1e mirf.o
 .debug_pubtypes
                0x00000074       0x38 e_agenda.o
 .debug_pubtypes
                0x000000ac       0x2b e_remote_control.o
 .debug_pubtypes
                0x000000d7       0x39 c:/program files (x86)/atmel/avr tools/avr toolchain/bin/../lib/gcc/avr/4.5.1/../../../../avr/lib/avr6\libc.a(malloc.o)

.debug_ranges   0x00000000       0x18
 .debug_ranges  0x00000000       0x18 c:/program files (x86)/atmel/avr tools/avr toolchain/bin/../lib/gcc/avr/4.5.1/../../../../avr/lib/avr6\libc.a(malloc.o)
